; ModuleID = '24/2099.c'
source_filename = "24/2099.c"
target datalayout = "e-m:e-p270:32:32-p271:32:32-p272:64:64-i64:64-f80:128-n8:16:32:64-S128"
target triple = "x86_64-pc-linux-gnu"

@.str = private unnamed_addr constant [3 x i8] c"%c\00", align 1
@.str.1 = private unnamed_addr constant [4 x i8] c"%s\0A\00", align 1

; Function Attrs: noinline nounwind uwtable
define dso_local i32 @main() #0 {
  %1 = alloca i32, align 4
  %2 = alloca i8, align 1
  %3 = alloca [200 x [100 x i8]], align 16
  %4 = alloca i32, align 4
  %5 = alloca i32, align 4
  %6 = alloca i32, align 4
  %7 = alloca i32, align 4
  %8 = alloca i32, align 4
  %9 = alloca i32, align 4
  %10 = alloca i32, align 4
  %11 = alloca [1000 x i32], align 16
  store i32 0, i32* %1, align 4
  store i32 0, i32* %4, align 4
  store i32 0, i32* %5, align 4
  store i32 0, i32* %9, align 4
  store i32 0, i32* %10, align 4
  %12 = call i32 (i8*, ...) @__isoc99_scanf(i8* getelementptr inbounds ([3 x i8], [3 x i8]* @.str, i64 0, i64 0), i8* %2)
  br label %13

13:                                               ; preds = %37, %0
  %14 = load i8, i8* %2, align 1
  %15 = sext i8 %14 to i32
  %16 = icmp ne i32 %15, 10
  br i1 %16, label %17, label %41

17:                                               ; preds = %13
  %18 = load i8, i8* %2, align 1
  %19 = load i32, i32* %4, align 4
  %20 = sext i32 %19 to i64
  %21 = getelementptr inbounds [200 x [100 x i8]], [200 x [100 x i8]]* %3, i64 0, i64 %20
  %22 = load i32, i32* %5, align 4
  %23 = sext i32 %22 to i64
  %24 = getelementptr inbounds [100 x i8], [100 x i8]* %21, i64 0, i64 %23
  store i8 %18, i8* %24, align 1
  %25 = load i8, i8* %2, align 1
  %26 = sext i8 %25 to i32
  %27 = icmp eq i32 %26, 32
  br i1 %27, label %28, label %37

28:                                               ; preds = %17
  %29 = load i32, i32* %4, align 4
  %30 = sext i32 %29 to i64
  %31 = getelementptr inbounds [200 x [100 x i8]], [200 x [100 x i8]]* %3, i64 0, i64 %30
  %32 = load i32, i32* %5, align 4
  %33 = sext i32 %32 to i64
  %34 = getelementptr inbounds [100 x i8], [100 x i8]* %31, i64 0, i64 %33
  store i8 0, i8* %34, align 1
  %35 = load i32, i32* %4, align 4
  %36 = add nsw i32 %35, 1
  store i32 %36, i32* %4, align 4
  store i32 -1, i32* %5, align 4
  br label %37

37:                                               ; preds = %28, %17
  %38 = load i32, i32* %5, align 4
  %39 = add nsw i32 %38, 1
  store i32 %39, i32* %5, align 4
  %40 = call i32 (i8*, ...) @__isoc99_scanf(i8* getelementptr inbounds ([3 x i8], [3 x i8]* @.str, i64 0, i64 0), i8* %2)
  br label %13

41:                                               ; preds = %13
  %42 = load i32, i32* %4, align 4
  %43 = sext i32 %42 to i64
  %44 = getelementptr inbounds [200 x [100 x i8]], [200 x [100 x i8]]* %3, i64 0, i64 %43
  %45 = load i32, i32* %5, align 4
  %46 = sext i32 %45 to i64
  %47 = getelementptr inbounds [100 x i8], [100 x i8]* %44, i64 0, i64 %46
  store i8 0, i8* %47, align 1
  %48 = load i32, i32* %4, align 4
  %49 = add nsw i32 %48, 1
  store i32 %49, i32* %6, align 4
  store i32 0, i32* %4, align 4
  br label %50

50:                                               ; preds = %64, %41
  %51 = load i32, i32* %4, align 4
  %52 = load i32, i32* %6, align 4
  %53 = icmp slt i32 %51, %52
  br i1 %53, label %54, label %67

54:                                               ; preds = %50
  %55 = load i32, i32* %4, align 4
  %56 = sext i32 %55 to i64
  %57 = getelementptr inbounds [200 x [100 x i8]], [200 x [100 x i8]]* %3, i64 0, i64 %56
  %58 = getelementptr inbounds [100 x i8], [100 x i8]* %57, i64 0, i64 0
  %59 = call i64 @strlen(i8* %58) #3
  %60 = trunc i64 %59 to i32
  %61 = load i32, i32* %4, align 4
  %62 = sext i32 %61 to i64
  %63 = getelementptr inbounds [1000 x i32], [1000 x i32]* %11, i64 0, i64 %62
  store i32 %60, i32* %63, align 4
  br label %64

64:                                               ; preds = %54
  %65 = load i32, i32* %4, align 4
  %66 = add nsw i32 %65, 1
  store i32 %66, i32* %4, align 4
  br label %50

67:                                               ; preds = %50
  %68 = getelementptr inbounds [1000 x i32], [1000 x i32]* %11, i64 0, i64 0
  %69 = load i32, i32* %68, align 16
  store i32 %69, i32* %7, align 4
  store i32 1, i32* %4, align 4
  br label %70

70:                                               ; preds = %88, %67
  %71 = load i32, i32* %4, align 4
  %72 = load i32, i32* %6, align 4
  %73 = icmp slt i32 %71, %72
  br i1 %73, label %74, label %91

74:                                               ; preds = %70
  %75 = load i32, i32* %4, align 4
  %76 = sext i32 %75 to i64
  %77 = getelementptr inbounds [1000 x i32], [1000 x i32]* %11, i64 0, i64 %76
  %78 = load i32, i32* %77, align 4
  %79 = load i32, i32* %7, align 4
  %80 = icmp sgt i32 %78, %79
  br i1 %80, label %81, label %87

81:                                               ; preds = %74
  %82 = load i32, i32* %4, align 4
  %83 = sext i32 %82 to i64
  %84 = getelementptr inbounds [1000 x i32], [1000 x i32]* %11, i64 0, i64 %83
  %85 = load i32, i32* %84, align 4
  store i32 %85, i32* %7, align 4
  %86 = load i32, i32* %4, align 4
  store i32 %86, i32* %10, align 4
  br label %87

87:                                               ; preds = %81, %74
  br label %88

88:                                               ; preds = %87
  %89 = load i32, i32* %4, align 4
  %90 = add nsw i32 %89, 1
  store i32 %90, i32* %4, align 4
  br label %70

91:                                               ; preds = %70
  %92 = load i32, i32* %10, align 4
  %93 = sext i32 %92 to i64
  %94 = getelementptr inbounds [200 x [100 x i8]], [200 x [100 x i8]]* %3, i64 0, i64 %93
  %95 = getelementptr inbounds [100 x i8], [100 x i8]* %94, i64 0, i64 0
  %96 = call i32 (i8*, ...) @printf(i8* getelementptr inbounds ([4 x i8], [4 x i8]* @.str.1, i64 0, i64 0), i8* %95)
  %97 = getelementptr inbounds [1000 x i32], [1000 x i32]* %11, i64 0, i64 0
  %98 = load i32, i32* %97, align 16
  store i32 %98, i32* %8, align 4
  store i32 1, i32* %4, align 4
  br label %99

99:                                               ; preds = %117, %91
  %100 = load i32, i32* %4, align 4
  %101 = load i32, i32* %6, align 4
  %102 = icmp slt i32 %100, %101
  br i1 %102, label %103, label %120

103:                                              ; preds = %99
  %104 = load i32, i32* %4, align 4
  %105 = sext i32 %104 to i64
  %106 = getelementptr inbounds [1000 x i32], [1000 x i32]* %11, i64 0, i64 %105
  %107 = load i32, i32* %106, align 4
  %108 = load i32, i32* %8, align 4
  %109 = icmp slt i32 %107, %108
  br i1 %109, label %110, label %116

110:                                              ; preds = %103
  %111 = load i32, i32* %4, align 4
  %112 = sext i32 %111 to i64
  %113 = getelementptr inbounds [1000 x i32], [1000 x i32]* %11, i64 0, i64 %112
  %114 = load i32, i32* %113, align 4
  store i32 %114, i32* %8, align 4
  %115 = load i32, i32* %4, align 4
  store i32 %115, i32* %9, align 4
  br label %116

116:                                              ; preds = %110, %103
  br label %117

117:                                              ; preds = %116
  %118 = load i32, i32* %4, align 4
  %119 = add nsw i32 %118, 1
  store i32 %119, i32* %4, align 4
  br label %99

120:                                              ; preds = %99
  %121 = load i32, i32* %9, align 4
  %122 = sext i32 %121 to i64
  %123 = getelementptr inbounds [200 x [100 x i8]], [200 x [100 x i8]]* %3, i64 0, i64 %122
  %124 = getelementptr inbounds [100 x i8], [100 x i8]* %123, i64 0, i64 0
  %125 = call i32 (i8*, ...) @printf(i8* getelementptr inbounds ([4 x i8], [4 x i8]* @.str.1, i64 0, i64 0), i8* %124)
  ret i32 0
}

declare dso_local i32 @__isoc99_scanf(i8*, ...) #1

; Function Attrs: nounwind readonly
declare dso_local i64 @strlen(i8*) #2

declare dso_local i32 @printf(i8*, ...) #1


!llvm.module.flags = !{!0}
!llvm.ident = !{!1}

!0 = !{i32 1, !"wchar_size", i32 4}
!1 = !{!"clang version 10.0.0-4ubuntu1 "}
